(lp0
(iodo_item
TodoItem
p1
(dp2
S'text'
p3
S'build documents'
p4
sS'duedate'
p5
NsS'startdate'
p6
cdatetime
date
p7
(S'\x07\xdf\x0c\x1a'
p8
tp9
Rp10
sba(iodo_item
TodoItem
p11
(dp12
g3
S'edit should not validate'
p13
sg5
Nsg6
g7
(S'\x07\xdf\x0c\x1a'
p14
tp15
Rp16
sba(iodo_item
TodoItem
p17
(dp18
g3
S'finalize documents'
p19
sg5
Nsg6
g7
(S'\x07\xdf\x0c\x1a'
p20
tp21
Rp22
sba.