(lp0
(iodo_item
TodoItem
p1
(dp2
S'text'
p3
S'finalize documents'
p4
sS'dimmed'
p5
I00
sS'duedate'
p6
NsS'marked'
p7
I01
sS'startdate'
p8
cdatetime
date
p9
(S'\x07\xdf\x0c\x1a'
p10
tp11
Rp12
sba(iodo_item
TodoItem
p13
(dp14
g3
S'real validation'
p15
sg6
Nsg8
g9
(S'\x07\xdf\x0c\x1b'
p16
tp17
Rp18
sba(iodo_item
TodoItem
p19
(dp20
g3
S'settings file'
p21
sg6
Nsg8
g9
(S'\x07\xdf\x0c\x1b'
p22
tp23
Rp24
sba.